; Function Attrs: nounwind uwtable
define ptr @l_Lean_Elab_Tactic_BVDecide_Frontend_Normalize_getEqIffEnumToBitVecEqFor___lambda__2(ptr noundef %0, ptr noundef %1, ptr noundef %2, ptr noundef %3, ptr noundef %4, ptr noundef %5, ptr noundef %6, ptr noundef %7, ptr noundef %8) #1 {
  tail call void @lean_inc_heartbeat() #7
  %10 = tail call noalias ptr @mi_malloc_small(i64 noundef 48) #7
  %11 = icmp eq ptr %10, null
  br i1 %11, label %12, label %lean_alloc_closure.exit

12:                                               ; preds = %9
  tail call void @lean_internal_panic_out_of_memory() #6
  unreachable

lean_alloc_closure.exit:                          ; preds = %9
  %13 = getelementptr inbounds nuw i8, ptr %10, i64 4
  store i32 1, ptr %10, align 4, !tbaa !4
  store i32 -184549328, ptr %13, align 4
  %14 = getelementptr inbounds nuw i8, ptr %10, i64 8
  store ptr @l_Lean_Elab_Tactic_BVDecide_Frontend_Normalize_getEqIffEnumToBitVecEqFor___lambda__1, ptr %14, align 8, !tbaa !11
  %15 = getelementptr inbounds nuw i8, ptr %10, i64 16
  store i16 9, ptr %15, align 8, !tbaa !15
  %16 = getelementptr inbounds nuw i8, ptr %10, i64 18
  store i16 3, ptr %16, align 2, !tbaa !15
  %17 = getelementptr inbounds nuw i8, ptr %10, i64 24
  store ptr %3, ptr %17, align 8, !tbaa !11
  %18 = getelementptr inbounds nuw i8, ptr %10, i64 32
  store ptr %0, ptr %18, align 8, !tbaa !11
  %19 = getelementptr inbounds nuw i8, ptr %10, i64 40
  store ptr %1, ptr %19, align 8, !tbaa !11
  %20 = load ptr, ptr @l_Lean_Elab_Tactic_BVDecide_Frontend_Normalize_getEqIffEnumToBitVecEqFor___lambda__2___closed__2, align 8, !tbaa !11
  %21 = tail call ptr @l_Lean_Meta_withLocalDecl___at_Lean_Meta_Simp_Arith_withAbstractAtoms_go___spec__1___rarg(ptr noundef %20, i8 noundef zeroext 0, ptr noundef %2, ptr noundef nonnull %10, i8 noundef zeroext 0, ptr noundef %4, ptr noundef %5, ptr noundef %6, ptr noundef %7, ptr noundef %8) #7
  ret ptr %21
}